target datalayout = "e-m:e-p270:32:32-p271:32:32-p272:64:64-i64:64-i128:128-f80:128-n8:16:32:64-S128"
target triple = "x86_64-pc-linux-gnu"

%struct._dcerpc_info = type { ptr, i32, i64, i8, i8, i8, i32, i32, i32, i32, i32, i32, i32, i32, ptr, ptr, ptr, ptr, %struct.anon }
%struct.anon = type { i8, ptr, ptr, ptr, i8 }

@ett_mapi_GetPerUserGuid_req = internal global i32 0, align 4
@hf_mapi_GetPerUserGuid_req_LongTermId = internal global i32 0, align 4
@hf_mapi_InputHandleIndex = internal global i32 0, align 4
@hf_mapi_LogonId = internal global i32 0, align 4

; Function Attrs: null_pointer_is_valid sspstrong uwtable
define internal i32 @mapi_dissect_element_GetPerUserGuid_req_LongTermId(ptr noundef %0, i32 noundef %1, ptr noundef %2, ptr noundef %3, ptr noundef %4, ptr noundef %5) #0 {
  %7 = alloca ptr, align 8
  %8 = alloca i32, align 4
  %9 = alloca ptr, align 8
  %10 = alloca ptr, align 8
  %11 = alloca ptr, align 8
  %12 = alloca ptr, align 8
  store ptr %0, ptr %7, align 8
  store i32 %1, ptr %8, align 4
  store ptr %2, ptr %9, align 8
  store ptr %3, ptr %10, align 8
  store ptr %4, ptr %11, align 8
  store ptr %5, ptr %12, align 8
  %13 = load ptr, ptr %7, align 8
  %14 = load i32, ptr %8, align 4
  %15 = load ptr, ptr %9, align 8
  %16 = load ptr, ptr %10, align 8
  %17 = load ptr, ptr %11, align 8
  %18 = load ptr, ptr %12, align 8
  %19 = load i32, ptr @hf_mapi_GetPerUserGuid_req_LongTermId, align 4
  %20 = call i32 @mapi_dissect_struct_LongTermId(ptr noundef %13, i32 noundef %14, ptr noundef %15, ptr noundef %16, ptr noundef %17, ptr noundef %18, i32 noundef %19, i32 noundef 0)
  store i32 %20, ptr %8, align 4
  %21 = load i32, ptr %8, align 4
  ret i32 %21
}

; Function Attrs: null_pointer_is_valid sspstrong uwtable
define internal i32 @mapi_dissect_element_GetPerUserGuid_req_InputHandleIndex(ptr noundef %0, i32 noundef %1, ptr noundef %2, ptr noundef %3, ptr noundef %4, ptr noundef %5) #0 {
  %7 = alloca ptr, align 8
  %8 = alloca i32, align 4
  %9 = alloca ptr, align 8
  %10 = alloca ptr, align 8
  %11 = alloca ptr, align 8
  %12 = alloca ptr, align 8
  store ptr %0, ptr %7, align 8
  store i32 %1, ptr %8, align 4
  store ptr %2, ptr %9, align 8
  store ptr %3, ptr %10, align 8
  store ptr %4, ptr %11, align 8
  store ptr %5, ptr %12, align 8
  %13 = load ptr, ptr %7, align 8
  %14 = load i32, ptr %8, align 4
  %15 = load ptr, ptr %9, align 8
  %16 = load ptr, ptr %10, align 8
  %17 = load ptr, ptr %11, align 8
  %18 = load ptr, ptr %12, align 8
  %19 = load i32, ptr @hf_mapi_InputHandleIndex, align 4
  %20 = call i32 @PIDL_dissect_uint8(ptr noundef %13, i32 noundef %14, ptr noundef %15, ptr noundef %16, ptr noundef %17, ptr noundef %18, i32 noundef %19, i32 noundef 0)
  store i32 %20, ptr %8, align 4
  %21 = load i32, ptr %8, align 4
  ret i32 %21
}

; Function Attrs: null_pointer_is_valid sspstrong uwtable
define internal i32 @mapi_dissect_element_GetPerUserGuid_req_LogonId(ptr noundef %0, i32 noundef %1, ptr noundef %2, ptr noundef %3, ptr noundef %4, ptr noundef %5) #0 {
  %7 = alloca ptr, align 8
  %8 = alloca i32, align 4
  %9 = alloca ptr, align 8
  %10 = alloca ptr, align 8
  %11 = alloca ptr, align 8
  %12 = alloca ptr, align 8
  store ptr %0, ptr %7, align 8
  store i32 %1, ptr %8, align 4
  store ptr %2, ptr %9, align 8
  store ptr %3, ptr %10, align 8
  store ptr %4, ptr %11, align 8
  store ptr %5, ptr %12, align 8
  %13 = load ptr, ptr %7, align 8
  %14 = load i32, ptr %8, align 4
  %15 = load ptr, ptr %9, align 8
  %16 = load ptr, ptr %10, align 8
  %17 = load ptr, ptr %11, align 8
  %18 = load ptr, ptr %12, align 8
  %19 = load i32, ptr @hf_mapi_LogonId, align 4
  %20 = call i32 @PIDL_dissect_uint8(ptr noundef %13, i32 noundef %14, ptr noundef %15, ptr noundef %16, ptr noundef %17, ptr noundef %18, i32 noundef %19, i32 noundef 0)
  store i32 %20, ptr %8, align 4
  %21 = load i32, ptr %8, align 4
  ret i32 %21
}

; Function Attrs: null_pointer_is_valid sspstrong uwtable
define hidden i32 @mapi_dissect_struct_GetPerUserGuid_req(ptr noundef %0, i32 noundef %1, ptr noundef %2, ptr noundef %3, ptr noundef %4, ptr noundef %5, i32 noundef %6, i32 noundef %7) #0 {
  %9 = alloca ptr, align 8
  %10 = alloca i32, align 4
  %11 = alloca ptr, align 8
  %12 = alloca ptr, align 8
  %13 = alloca ptr, align 8
  %14 = alloca ptr, align 8
  %15 = alloca i32, align 4
  %16 = alloca i32, align 4
  %17 = alloca ptr, align 8
  %18 = alloca ptr, align 8
  %19 = alloca i8, align 1
  %20 = alloca i32, align 4
  store ptr %0, ptr %9, align 8
  store i32 %1, ptr %10, align 4
  store ptr %2, ptr %11, align 8
  store ptr %3, ptr %12, align 8
  store ptr %4, ptr %13, align 8
  store ptr %5, ptr %14, align 8
  store i32 %6, ptr %15, align 4
  store i32 %7, ptr %16, align 4
  call void @llvm.lifetime.start.p0(i64 8, ptr %17) #5
  store ptr null, ptr %17, align 8
  call void @llvm.lifetime.start.p0(i64 8, ptr %18) #5
  store ptr null, ptr %18, align 8
  call void @llvm.lifetime.start.p0(i64 1, ptr %19) #5
  %21 = load ptr, ptr %13, align 8
  %22 = getelementptr inbounds nuw %struct._dcerpc_info, ptr %21, i32 0, i32 5
  %23 = load i8, ptr %22, align 2, !range !6, !noundef !7
  %24 = trunc i8 %23 to i1
  %25 = zext i1 %24 to i8
  store i8 %25, ptr %19, align 1
  call void @llvm.lifetime.start.p0(i64 4, ptr %20) #5
  %26 = load ptr, ptr %13, align 8
  %27 = getelementptr inbounds nuw %struct._dcerpc_info, ptr %26, i32 0, i32 5
  store i8 1, ptr %27, align 2
  %28 = load i32, ptr %10, align 4
  store i32 %28, ptr %20, align 4
  %29 = load ptr, ptr %12, align 8
  %30 = icmp ne ptr %29, null
  br i1 %30, label %31, label %40

31:                                               ; preds = %8
  %32 = load ptr, ptr %12, align 8
  %33 = load i32, ptr %15, align 4
  %34 = load ptr, ptr %9, align 8
  %35 = load i32, ptr %10, align 4
  %36 = call ptr @proto_tree_add_item(ptr noundef %32, i32 noundef %33, ptr noundef %34, i32 noundef %35, i32 noundef -1, i32 noundef 0)
  store ptr %36, ptr %17, align 8
  %37 = load ptr, ptr %17, align 8
  %38 = load i32, ptr @ett_mapi_GetPerUserGuid_req, align 4
  %39 = call ptr @proto_item_add_subtree(ptr noundef %37, i32 noundef %38)
  store ptr %39, ptr %18, align 8
  br label %40

40:                                               ; preds = %31, %8
  %41 = load ptr, ptr %9, align 8
  %42 = load i32, ptr %10, align 4
  %43 = load ptr, ptr %11, align 8
  %44 = load ptr, ptr %18, align 8
  %45 = load ptr, ptr %13, align 8
  %46 = load ptr, ptr %14, align 8
  %47 = call i32 @mapi_dissect_element_GetPerUserGuid_req_LogonId(ptr noundef %41, i32 noundef %42, ptr noundef %43, ptr noundef %44, ptr noundef %45, ptr noundef %46)
  store i32 %47, ptr %10, align 4
  %48 = load ptr, ptr %9, align 8
  %49 = load i32, ptr %10, align 4
  %50 = load ptr, ptr %11, align 8
  %51 = load ptr, ptr %18, align 8
  %52 = load ptr, ptr %13, align 8
  %53 = load ptr, ptr %14, align 8
  %54 = call i32 @mapi_dissect_element_GetPerUserGuid_req_InputHandleIndex(ptr noundef %48, i32 noundef %49, ptr noundef %50, ptr noundef %51, ptr noundef %52, ptr noundef %53)
  store i32 %54, ptr %10, align 4
  %55 = load ptr, ptr %9, align 8
  %56 = load i32, ptr %10, align 4
  %57 = load ptr, ptr %11, align 8
  %58 = load ptr, ptr %18, align 8
  %59 = load ptr, ptr %13, align 8
  %60 = load ptr, ptr %14, align 8
  %61 = call i32 @mapi_dissect_element_GetPerUserGuid_req_LongTermId(ptr noundef %55, i32 noundef %56, ptr noundef %57, ptr noundef %58, ptr noundef %59, ptr noundef %60)
  store i32 %61, ptr %10, align 4
  %62 = load ptr, ptr %17, align 8
  %63 = load i32, ptr %10, align 4
  %64 = load i32, ptr %20, align 4
  %65 = sub i32 %63, %64
  call void @proto_item_set_len(ptr noundef %62, i32 noundef %65)
  %66 = load i8, ptr %19, align 1, !range !6, !noundef !7
  %67 = trunc i8 %66 to i1
  %68 = load ptr, ptr %13, align 8
  %69 = getelementptr inbounds nuw %struct._dcerpc_info, ptr %68, i32 0, i32 5
  %70 = zext i1 %67 to i8
  store i8 %70, ptr %69, align 2
  %71 = load i32, ptr %10, align 4
  call void @llvm.lifetime.end.p0(i64 4, ptr %20) #5
  call void @llvm.lifetime.end.p0(i64 1, ptr %19) #5
  call void @llvm.lifetime.end.p0(i64 8, ptr %18) #5
  call void @llvm.lifetime.end.p0(i64 8, ptr %17) #5
  ret i32 %71
}